target datalayout = "e-m:e-p270:32:32-p271:32:32-p272:64:64-i64:64-i128:128-f80:128-n8:16:32:64-S128"
target triple = "x86_64-pc-linux-gnu"

@.str.3 = private unnamed_addr constant [11 x i8] c"PUBLIC KEY\00", align 1
@.str.15 = private unnamed_addr constant [4 x i8] c"PEM\00", align 1
@.str.16 = private unnamed_addr constant [21 x i8] c"SubjectPublicKeyInfo\00", align 1

; Function Attrs: nounwind uwtable
define i32 @PEM_write_PUBKEY(ptr noundef %0, ptr noundef %1) #0 {
  %3 = alloca i32, align 4
  %4 = alloca ptr, align 8
  %5 = alloca ptr, align 8
  %6 = alloca i32, align 4
  %7 = alloca ptr, align 8
  %8 = alloca i32, align 4
  store ptr %0, ptr %4, align 8, !tbaa !11
  store ptr %1, ptr %5, align 8, !tbaa !33
  call void @llvm.lifetime.start.p0(i64 4, ptr %6) #4
  store i32 0, ptr %6, align 4, !tbaa !41
  call void @llvm.lifetime.start.p0(i64 8, ptr %7) #4
  %9 = load ptr, ptr %5, align 8, !tbaa !33
  %10 = call ptr @OSSL_ENCODER_CTX_new_for_pkey(ptr noundef %9, i32 noundef 134, ptr noundef @.str.15, ptr noundef @.str.16, ptr noundef null)
  store ptr %10, ptr %7, align 8, !tbaa !61
  %11 = load ptr, ptr %7, align 8, !tbaa !61
  %12 = call i32 @OSSL_ENCODER_CTX_get_num_encoders(ptr noundef %11)
  %13 = icmp eq i32 %12, 0
  br i1 %13, label %14, label %16

14:                                               ; preds = %2
  %15 = load ptr, ptr %7, align 8, !tbaa !61
  call void @OSSL_ENCODER_CTX_free(ptr noundef %15)
  br label %22

16:                                               ; preds = %2
  %17 = load ptr, ptr %7, align 8, !tbaa !61
  %18 = load ptr, ptr %4, align 8, !tbaa !11
  %19 = call i32 @OSSL_ENCODER_to_fp(ptr noundef %17, ptr noundef %18)
  store i32 %19, ptr %6, align 4, !tbaa !41
  %20 = load ptr, ptr %7, align 8, !tbaa !61
  call void @OSSL_ENCODER_CTX_free(ptr noundef %20)
  %21 = load i32, ptr %6, align 4, !tbaa !41
  store i32 %21, ptr %3, align 4
  store i32 1, ptr %8, align 4
  br label %26

22:                                               ; preds = %14
  %23 = load ptr, ptr %4, align 8, !tbaa !11
  %24 = load ptr, ptr %5, align 8, !tbaa !33
  %25 = call i32 @PEM_ASN1_write(ptr noundef @i2d_PUBKEY, ptr noundef @.str.3, ptr noundef %23, ptr noundef %24, ptr noundef null, ptr noundef null, i32 noundef 0, ptr noundef null, ptr noundef null)
  store i32 %25, ptr %3, align 4
  store i32 1, ptr %8, align 4
  br label %26

26:                                               ; preds = %22, %16
  call void @llvm.lifetime.end.p0(i64 8, ptr %7) #4
  call void @llvm.lifetime.end.p0(i64 4, ptr %6) #4
  %27 = load i32, ptr %3, align 4
  ret i32 %27
}