; Function Attrs: nounwind uwtable
define i32 @PEM_write_PUBKEY(ptr noundef %0, ptr noundef %1) local_unnamed_addr #0 {
  %3 = tail call ptr @OSSL_ENCODER_CTX_new_for_pkey(ptr noundef %1, i32 noundef 134, ptr noundef nonnull @.str.15, ptr noundef nonnull @.str.16, ptr noundef null) #4
  %4 = tail call i32 @OSSL_ENCODER_CTX_get_num_encoders(ptr noundef %3) #4
  %5 = icmp eq i32 %4, 0
  br i1 %5, label %6, label %8

6:                                                ; preds = %2
  tail call void @OSSL_ENCODER_CTX_free(ptr noundef %3) #4
  %7 = tail call i32 @PEM_ASN1_write(ptr noundef nonnull @i2d_PUBKEY, ptr noundef nonnull @.str.3, ptr noundef %0, ptr noundef %1, ptr noundef null, ptr noundef null, i32 noundef 0, ptr noundef null, ptr noundef null) #4
  br label %10

8:                                                ; preds = %2
  %9 = tail call i32 @OSSL_ENCODER_to_fp(ptr noundef %3, ptr noundef %0) #4
  tail call void @OSSL_ENCODER_CTX_free(ptr noundef %3) #4
  br label %10

10:                                               ; preds = %6, %8
  %.0 = phi i32 [ %7, %6 ], [ %9, %8 ]
  ret i32 %.0
}